; Function Attrs: nounwind uwtable
define ptr @l_Lean_RBNode_insert___at_Lake_Package_loadFromEnv___spec__23(ptr noundef %0, ptr noundef %1, ptr noundef %2, ptr noundef %3) local_unnamed_addr #2 {
  %5 = tail call zeroext i8 @l_Lean_RBNode_isRed___rarg(ptr noundef %1) #5
  %6 = icmp eq i8 %5, 0
  br i1 %6, label %7, label %9

7:                                                ; preds = %4
  %8 = tail call ptr @l_Lean_RBNode_ins___at_Lake_Package_loadFromEnv___spec__24(ptr noundef %0, ptr noundef %1, ptr noundef %2, ptr noundef %3)
  br label %12

9:                                                ; preds = %4
  %10 = tail call ptr @l_Lean_RBNode_ins___at_Lake_Package_loadFromEnv___spec__25(ptr noundef %0, ptr noundef %1, ptr noundef %2, ptr noundef %3)
  %11 = tail call ptr @l_Lean_RBNode_setBlack___rarg(ptr noundef %10) #5
  br label %12

12:                                               ; preds = %9, %7
  %.0 = phi ptr [ %8, %7 ], [ %11, %9 ]
  ret ptr %.0
}